; Function Attrs: nounwind uwtable
define range(i32 -1, 1) i32 @H5Pget_fapl_onion(i64 noundef %0, ptr noundef writeonly %1) local_unnamed_addr #0 {
  %3 = load i8, ptr @H5_libinit_g, align 1
  %4 = trunc i8 %3 to i1
  %5 = load i8, ptr @H5_libterm_g, align 1
  %6 = trunc i8 %5 to i1
  %7 = select i1 %4, i1 true, i1 %6
  br i1 %7, label %15, label %8

8:                                                ; preds = %2
  %9 = tail call i32 @H5_init_library() #18
  %10 = icmp slt i32 %9, 0
  br i1 %10, label %11, label %15

11:                                               ; preds = %8
  %12 = load i64, ptr @H5E_FUNC_g, align 8
  %13 = load i64, ptr @H5E_CANTINIT_g, align 8
  %14 = tail call i32 (ptr, ptr, i32, i64, i64, ptr, ...) @H5E_printf_stack(ptr noundef nonnull @.str, ptr noundef nonnull @__func__.H5Pget_fapl_onion, i32 noundef 283, i64 noundef %12, i64 noundef %13, ptr noundef nonnull @.str.1) #18
  br label %.thread27

15:                                               ; preds = %8, %2
  %16 = tail call i32 @H5CX_push() #18
  %17 = icmp slt i32 %16, 0
  br i1 %17, label %18, label %22

18:                                               ; preds = %15
  %19 = load i64, ptr @H5E_FUNC_g, align 8
  %20 = load i64, ptr @H5E_CANTSET_g, align 8
  %21 = tail call i32 (ptr, ptr, i32, i64, i64, ptr, ...) @H5E_printf_stack(ptr noundef nonnull @.str, ptr noundef nonnull @__func__.H5Pget_fapl_onion, i32 noundef 283, i64 noundef %19, i64 noundef %20, ptr noundef nonnull @.str.2) #18
  br label %.thread27

22:                                               ; preds = %15
  %23 = tail call i32 @H5E_clear_stack() #18
  %24 = icmp eq ptr %1, null
  br i1 %24, label %25, label %29

25:                                               ; preds = %22
  %26 = load i64, ptr @H5E_ARGS_g, align 8
  %27 = load i64, ptr @H5E_BADVALUE_g, align 8
  %28 = tail call i32 (ptr, ptr, i32, i64, i64, ptr, ...) @H5E_printf_stack(ptr noundef nonnull @.str, ptr noundef nonnull @__func__.H5Pget_fapl_onion, i32 noundef 286, i64 noundef %26, i64 noundef %27, ptr noundef nonnull @.str.3) #18
  br label %.thread33

29:                                               ; preds = %22
  %30 = load i64, ptr @H5P_CLS_FILE_ACCESS_ID_g, align 8
  %31 = tail call ptr @H5P_object_verify(i64 noundef %0, i64 noundef %30) #18
  %32 = icmp eq ptr %31, null
  br i1 %32, label %33, label %37

33:                                               ; preds = %29
  %34 = load i64, ptr @H5E_ARGS_g, align 8
  %35 = load i64, ptr @H5E_BADVALUE_g, align 8
  %36 = tail call i32 (ptr, ptr, i32, i64, i64, ptr, ...) @H5E_printf_stack(ptr noundef nonnull @.str, ptr noundef nonnull @__func__.H5Pget_fapl_onion, i32 noundef 289, i64 noundef %34, i64 noundef %35, ptr noundef nonnull @.str.4) #18
  br label %.thread33

37:                                               ; preds = %29
  %38 = tail call i64 @H5FDperform_init(ptr noundef nonnull @H5FD_onion_init) #18
  %39 = tail call i64 @H5P_peek_driver(ptr noundef nonnull %31) #18
  %.not = icmp eq i64 %38, %39
  br i1 %.not, label %44, label %40

40:                                               ; preds = %37
  %41 = load i64, ptr @H5E_ARGS_g, align 8
  %42 = load i64, ptr @H5E_BADVALUE_g, align 8
  %43 = tail call i32 (ptr, ptr, i32, i64, i64, ptr, ...) @H5E_printf_stack(ptr noundef nonnull @.str, ptr noundef nonnull @__func__.H5Pget_fapl_onion, i32 noundef 292, i64 noundef %41, i64 noundef %42, ptr noundef nonnull @.str.5) #18
  br label %.thread33

44:                                               ; preds = %37
  %45 = tail call ptr @H5P_peek_driver_info(ptr noundef nonnull %31) #18
  %46 = icmp eq ptr %45, null
  br i1 %46, label %47, label %52

47:                                               ; preds = %44
  %48 = load i64, ptr @H5E_ARGS_g, align 8
  %49 = load i64, ptr @H5E_BADVALUE_g, align 8
  %50 = tail call i32 (ptr, ptr, i32, i64, i64, ptr, ...) @H5E_printf_stack(ptr noundef nonnull @.str, ptr noundef nonnull @__func__.H5Pget_fapl_onion, i32 noundef 295, i64 noundef %48, i64 noundef %49, ptr noundef nonnull @.str.6) #18
  br label %.thread33

.thread33:                                        ; preds = %47, %40, %33, %25
  %51 = tail call i32 @H5CX_pop(i1 noundef zeroext true) #18
  br label %.thread27

52:                                               ; preds = %44
  tail call void @llvm.memcpy.p0.p0.i64(ptr noundef nonnull align 8 dereferenceable(296) %1, ptr noundef nonnull align 8 dereferenceable(296) %45, i64 296, i1 false)
  %53 = tail call i32 @H5CX_pop(i1 noundef zeroext true) #18
  br label %55

.thread27:                                        ; preds = %18, %11, %.thread33
  %54 = tail call i32 @H5E_dump_api_stack() #18
  br label %55

55:                                               ; preds = %52, %.thread27
  %.0152230 = phi i32 [ -1, %.thread27 ], [ 0, %52 ]
  ret i32 %.0152230
}